target datalayout = "e-m:e-p270:32:32-p271:32:32-p272:64:64-i64:64-i128:128-f80:128-n8:16:32:64-S128"
target triple = "x86_64-pc-linux-gnu"

%struct.Tuplesortstate = type { %struct.TuplesortPublic, i32, i8, i8, i32, i64, i64, i64, i32, i64, i8, i32, ptr, ptr, i32, i32, i8, i8, ptr, ptr, ptr, i64, ptr, i32, ptr, i32, i32, ptr, i32, i32, ptr, ptr, i32, i8, i64, i32, i8, i32, ptr, i32, i64, %struct.PGRUsage }
%struct.TuplesortPublic = type { ptr, ptr, ptr, ptr, ptr, ptr, ptr, ptr, ptr, i8, i32, ptr, ptr, i32, i8, ptr }
%struct.PGRUsage = type { %struct.timeval, %struct.rusage }
%struct.timeval = type { i64, i64 }
%struct.rusage = type { %struct.timeval, %struct.timeval, %union.anon, %union.anon.0, %union.anon.1, %union.anon.2, %union.anon.3, %union.anon.4, %union.anon.5, %union.anon.6, %union.anon.7, %union.anon.8, %union.anon.9, %union.anon.10, %union.anon.11, %union.anon.12 }
%union.anon = type { i64 }
%union.anon.0 = type { i64 }
%union.anon.1 = type { i64 }
%union.anon.2 = type { i64 }
%union.anon.3 = type { i64 }
%union.anon.4 = type { i64 }
%union.anon.5 = type { i64 }
%union.anon.6 = type { i64 }
%union.anon.7 = type { i64 }
%union.anon.8 = type { i64 }
%union.anon.9 = type { i64 }
%union.anon.10 = type { i64 }
%union.anon.11 = type { i64 }
%union.anon.12 = type { i64 }

; Function Attrs: nounwind uwtable
define internal void @tuplesort_updatemax(ptr noundef %0) #0 {
  %2 = alloca ptr, align 8
  %3 = alloca i64, align 8
  %4 = alloca i8, align 1
  store ptr %0, ptr %2, align 8
  call void @llvm.lifetime.start.p0(i64 8, ptr %3) #9
  call void @llvm.lifetime.start.p0(i64 1, ptr %4) #9
  %5 = load ptr, ptr %2, align 8
  %6 = getelementptr inbounds nuw %struct.Tuplesortstate, ptr %5, i32 0, i32 12
  %7 = load ptr, ptr %6, align 8
  %8 = icmp ne ptr %7, null
  br i1 %8, label %9, label %15

9:                                                ; preds = %1
  store i8 1, ptr %4, align 1
  %10 = load ptr, ptr %2, align 8
  %11 = getelementptr inbounds nuw %struct.Tuplesortstate, ptr %10, i32 0, i32 12
  %12 = load ptr, ptr %11, align 8
  %13 = call i64 @LogicalTapeSetBlocks(ptr noundef %12)
  %14 = mul i64 %13, 8192
  store i64 %14, ptr %3, align 8
  br label %23

15:                                               ; preds = %1
  store i8 0, ptr %4, align 1
  %16 = load ptr, ptr %2, align 8
  %17 = getelementptr inbounds nuw %struct.Tuplesortstate, ptr %16, i32 0, i32 7
  %18 = load i64, ptr %17, align 8
  %19 = load ptr, ptr %2, align 8
  %20 = getelementptr inbounds nuw %struct.Tuplesortstate, ptr %19, i32 0, i32 6
  %21 = load i64, ptr %20, align 8
  %22 = sub i64 %18, %21
  store i64 %22, ptr %3, align 8
  br label %23

23:                                               ; preds = %15, %9
  %24 = load i8, ptr %4, align 1, !range !4, !noundef !5
  %25 = trunc i8 %24 to i1
  br i1 %25, label %26, label %31

26:                                               ; preds = %23
  %27 = load ptr, ptr %2, align 8
  %28 = getelementptr inbounds nuw %struct.Tuplesortstate, ptr %27, i32 0, i32 10
  %29 = load i8, ptr %28, align 8, !range !4, !noundef !5
  %30 = trunc i8 %29 to i1
  br i1 %30, label %31, label %47

31:                                               ; preds = %26, %23
  %32 = load i8, ptr %4, align 1, !range !4, !noundef !5
  %33 = trunc i8 %32 to i1
  %34 = zext i1 %33 to i32
  %35 = load ptr, ptr %2, align 8
  %36 = getelementptr inbounds nuw %struct.Tuplesortstate, ptr %35, i32 0, i32 10
  %37 = load i8, ptr %36, align 8, !range !4, !noundef !5
  %38 = trunc i8 %37 to i1
  %39 = zext i1 %38 to i32
  %40 = icmp eq i32 %34, %39
  br i1 %40, label %41, label %61

41:                                               ; preds = %31
  %42 = load i64, ptr %3, align 8
  %43 = load ptr, ptr %2, align 8
  %44 = getelementptr inbounds nuw %struct.Tuplesortstate, ptr %43, i32 0, i32 9
  %45 = load i64, ptr %44, align 8
  %46 = icmp sgt i64 %42, %45
  br i1 %46, label %47, label %61

47:                                               ; preds = %41, %26
  %48 = load i64, ptr %3, align 8
  %49 = load ptr, ptr %2, align 8
  %50 = getelementptr inbounds nuw %struct.Tuplesortstate, ptr %49, i32 0, i32 9
  store i64 %48, ptr %50, align 8
  %51 = load i8, ptr %4, align 1, !range !4, !noundef !5
  %52 = trunc i8 %51 to i1
  %53 = load ptr, ptr %2, align 8
  %54 = getelementptr inbounds nuw %struct.Tuplesortstate, ptr %53, i32 0, i32 10
  %55 = zext i1 %52 to i8
  store i8 %55, ptr %54, align 8
  %56 = load ptr, ptr %2, align 8
  %57 = getelementptr inbounds nuw %struct.Tuplesortstate, ptr %56, i32 0, i32 1
  %58 = load i32, ptr %57, align 8
  %59 = load ptr, ptr %2, align 8
  %60 = getelementptr inbounds nuw %struct.Tuplesortstate, ptr %59, i32 0, i32 11
  store i32 %58, ptr %60, align 4
  br label %61

61:                                               ; preds = %47, %41, %31
  call void @llvm.lifetime.end.p0(i64 1, ptr %4) #9
  call void @llvm.lifetime.end.p0(i64 8, ptr %3) #9
  ret void
}

; Function Attrs: nounwind uwtable
define dso_local void @tuplesort_reset(ptr noundef %0) #0 {
  %2 = alloca ptr, align 8
  store ptr %0, ptr %2, align 8
  %3 = load ptr, ptr %2, align 8
  call void @tuplesort_updatemax(ptr noundef %3)
  %4 = load ptr, ptr %2, align 8
  call void @tuplesort_free(ptr noundef %4)
  %5 = load ptr, ptr %2, align 8
  call void @tuplesort_begin_batch(ptr noundef %5)
  %6 = load ptr, ptr %2, align 8
  %7 = getelementptr inbounds nuw %struct.Tuplesortstate, ptr %6, i32 0, i32 22
  store ptr null, ptr %7, align 8
  %8 = load ptr, ptr %2, align 8
  %9 = getelementptr inbounds nuw %struct.Tuplesortstate, ptr %8, i32 0, i32 18
  store ptr null, ptr %9, align 8
  %10 = load ptr, ptr %2, align 8
  %11 = getelementptr inbounds nuw %struct.Tuplesortstate, ptr %10, i32 0, i32 19
  store ptr null, ptr %11, align 8
  %12 = load ptr, ptr %2, align 8
  %13 = getelementptr inbounds nuw %struct.Tuplesortstate, ptr %12, i32 0, i32 20
  store ptr null, ptr %13, align 8
  ret void
}