; Function Attrs: nounwind uwtable
define dso_local void @tuplesort_reset(ptr noundef %0) local_unnamed_addr #0 {
  %2 = getelementptr inbounds nuw i8, ptr %0, i64 176
  %3 = load ptr, ptr %2, align 8
  %.not.i = icmp ne ptr %3, null
  br i1 %.not.i, label %10, label %4

4:                                                ; preds = %1
  %5 = getelementptr inbounds nuw i8, ptr %0, i64 144
  %6 = load i64, ptr %5, align 8
  %7 = getelementptr inbounds nuw i8, ptr %0, i64 136
  %8 = load i64, ptr %7, align 8
  %9 = sub i64 %6, %8
  %.phi.trans.insert.i = getelementptr inbounds nuw i8, ptr %0, i64 168
  %.pre.i = load i8, ptr %.phi.trans.insert.i, align 8, !range !4
  br label %16

10:                                               ; preds = %1
  %11 = tail call i64 @LogicalTapeSetBlocks(ptr noundef nonnull %3) #13
  %12 = shl i64 %11, 13
  %13 = getelementptr inbounds nuw i8, ptr %0, i64 168
  %14 = load i8, ptr %13, align 8, !range !4, !noundef !5
  %15 = trunc nuw i8 %14 to i1
  br i1 %15, label %16, label %._crit_edge.i

16:                                               ; preds = %10, %4
  %17 = phi i8 [ 1, %10 ], [ %.pre.i, %4 ]
  %.01518.i = phi i64 [ %12, %10 ], [ %9, %4 ]
  %18 = zext i1 %.not.i to i8
  %19 = icmp eq i8 %17, %18
  br i1 %19, label %20, label %tuplesort_updatemax.exit

20:                                               ; preds = %16
  %21 = getelementptr inbounds nuw i8, ptr %0, i64 160
  %22 = load i64, ptr %21, align 8
  %23 = icmp sgt i64 %.01518.i, %22
  br i1 %23, label %._crit_edge.i, label %tuplesort_updatemax.exit

._crit_edge.i:                                    ; preds = %20, %10
  %.pre-phi.i = phi i8 [ %17, %20 ], [ 1, %10 ]
  %.01520.i = phi i64 [ %.01518.i, %20 ], [ %12, %10 ]
  %24 = getelementptr inbounds nuw i8, ptr %0, i64 160
  store i64 %.01520.i, ptr %24, align 8
  %25 = getelementptr inbounds nuw i8, ptr %0, i64 168
  store i8 %.pre-phi.i, ptr %25, align 8
  %26 = getelementptr inbounds nuw i8, ptr %0, i64 112
  %27 = load i32, ptr %26, align 8
  %28 = getelementptr inbounds nuw i8, ptr %0, i64 172
  store i32 %27, ptr %28, align 4
  br label %tuplesort_updatemax.exit

tuplesort_updatemax.exit:                         ; preds = %16, %20, %._crit_edge.i
  tail call fastcc void @tuplesort_free(ptr noundef nonnull %0)
  tail call fastcc void @tuplesort_begin_batch(ptr noundef nonnull %0)
  %29 = getelementptr inbounds nuw i8, ptr %0, i64 240
  store ptr null, ptr %29, align 8
  %30 = getelementptr inbounds nuw i8, ptr %0, i64 208
  tail call void @llvm.memset.p0.i64(ptr noundef nonnull align 8 dereferenceable(24) %30, i8 0, i64 24, i1 false)
  ret void
}